target datalayout = "e-m:e-p270:32:32-p271:32:32-p272:64:64-i64:64-i128:128-f80:128-n8:16:32:64-S128"
target triple = "x86_64-pc-linux-gnu"

%class.rational = type { %class.mpq }
%class.mpq = type { %class.mpz, %class.mpz }
%class.mpz = type { i32, i8, ptr }
%class.svector.9 = type { %class.vector.10 }
%class.vector.10 = type { ptr }
%"class.dd::pdd_manager" = type { %class.svector, %class.vector.0, %class.ptr_hashtable, %class.hashtable, %class.hashtable.3, %class.map, %class.svector.9, ptr, %class.svector.9, %class.svector.9, %class.svector.9, %class.svector.9, %class.small_object_allocator, %class.svector.9, i32, %class.svector.9, %class.svector.9, %class.svector.11, i8, i8, i32, i32, %class.svector.9, %class.svector.9, %class.rational, %class.rational, i32, %class.rational, %class.svector.9, i32, %class.svector.9, %class.svector.9, %class.rational, %class.rational }
%class.svector = type { %class.vector }
%class.vector = type { ptr }
%class.vector.0 = type { ptr }
%class.ptr_hashtable = type { %class.core_hashtable.base, [4 x i8] }
%class.core_hashtable.base = type <{ ptr, i32, i32, i32 }>
%class.hashtable = type { %class.core_hashtable.base.2, [4 x i8] }
%class.core_hashtable.base.2 = type <{ ptr, i32, i32, i32 }>
%class.hashtable.3 = type { %class.core_hashtable.base.5, [4 x i8] }
%class.core_hashtable.base.5 = type <{ ptr, i32, i32, i32 }>
%class.map = type { %class.table2map }
%class.table2map = type { %class.core_hashtable.7 }
%class.core_hashtable.7 = type <{ ptr, i32, i32, i32, [4 x i8] }>
%class.small_object_allocator = type { [32 x ptr], [32 x ptr], i64 }
%class.svector.11 = type { %class.vector.12 }
%class.vector.12 = type { ptr }
%"struct.dd::pdd_manager::node" = type { i32, i32, i32, i32 }
%"class.dd::pdd" = type { i32, ptr }

; Function Attrs: mustprogress nounwind uwtable
define linkonce_odr hidden noundef nonnull align 4 dereferenceable(16) ptr @_ZN6vectorIN2dd11pdd_manager4nodeELb0EjEixEj(ptr noundef nonnull align 8 dereferenceable(8) %0, i32 noundef %1) #5 comdat align 2 {
  %3 = alloca ptr, align 8
  %4 = alloca i32, align 4
  store ptr %0, ptr %3, align 8, !tbaa !108
  store i32 %1, ptr %4, align 4, !tbaa !8
  %5 = load ptr, ptr %3, align 8
  %6 = getelementptr inbounds nuw %class.vector, ptr %5, i32 0, i32 0
  %7 = load ptr, ptr %6, align 8, !tbaa !123
  %8 = load i32, ptr %4, align 4, !tbaa !8
  %9 = zext i32 %8 to i64
  %10 = getelementptr inbounds nuw %"struct.dd::pdd_manager::node", ptr %7, i64 %9
  ret ptr %10
}

; Function Attrs: noinline noreturn nounwind uwtable
define linkonce_odr hidden void @__clang_call_terminate(ptr noundef %0) #9 comdat {
  %2 = call ptr @__cxa_begin_catch(ptr %0) #3
  call void @_ZSt9terminatev() #21
  unreachable
}

; Function Attrs: inlinehint mustprogress uwtable
define linkonce_odr hidden void @_ZN2dd11pdd_manager7dec_refEj(ptr noundef nonnull align 8 dereferenceable(952) %0, i32 noundef %1) #7 comdat align 2 {
  %3 = alloca ptr, align 8
  %4 = alloca i32, align 4
  store ptr %0, ptr %3, align 8, !tbaa !3
  store i32 %1, ptr %4, align 4, !tbaa !8
  %5 = load ptr, ptr %3, align 8
  %6 = getelementptr inbounds nuw %"class.dd::pdd_manager", ptr %5, i32 0, i32 0
  %7 = load i32, ptr %4, align 4, !tbaa !8
  %8 = call noundef nonnull align 4 dereferenceable(16) ptr @_ZN6vectorIN2dd11pdd_manager4nodeELb0EjEixEj(ptr noundef nonnull align 8 dereferenceable(8) %6, i32 noundef %7)
  %9 = load i32, ptr %8, align 4
  %10 = and i32 %9, 1023
  %11 = icmp ne i32 %10, 1023
  br i1 %11, label %12, label %23

12:                                               ; preds = %2
  %13 = getelementptr inbounds nuw %"class.dd::pdd_manager", ptr %5, i32 0, i32 0
  %14 = load i32, ptr %4, align 4, !tbaa !8
  %15 = call noundef nonnull align 4 dereferenceable(16) ptr @_ZN6vectorIN2dd11pdd_manager4nodeELb0EjEixEj(ptr noundef nonnull align 8 dereferenceable(8) %13, i32 noundef %14)
  %16 = load i32, ptr %15, align 4
  %17 = and i32 %16, 1023
  %18 = add i32 %17, -1
  %19 = load i32, ptr %15, align 4
  %20 = and i32 %18, 1023
  %21 = and i32 %19, -1024
  %22 = or i32 %21, %20
  store i32 %22, ptr %15, align 4
  br label %23

23:                                               ; preds = %12, %2
  ret void
}

; Function Attrs: inlinehint mustprogress uwtable
define linkonce_odr hidden void @_ZN2dd11pdd_manager7inc_refEj(ptr noundef nonnull align 8 dereferenceable(952) %0, i32 noundef %1) #7 comdat align 2 {
  %3 = alloca ptr, align 8
  %4 = alloca i32, align 4
  store ptr %0, ptr %3, align 8, !tbaa !3
  store i32 %1, ptr %4, align 4, !tbaa !8
  %5 = load ptr, ptr %3, align 8
  %6 = getelementptr inbounds nuw %"class.dd::pdd_manager", ptr %5, i32 0, i32 0
  %7 = load i32, ptr %4, align 4, !tbaa !8
  %8 = call noundef nonnull align 4 dereferenceable(16) ptr @_ZN6vectorIN2dd11pdd_manager4nodeELb0EjEixEj(ptr noundef nonnull align 8 dereferenceable(8) %6, i32 noundef %7)
  %9 = load i32, ptr %8, align 4
  %10 = and i32 %9, 1023
  %11 = icmp ne i32 %10, 1023
  br i1 %11, label %12, label %23

12:                                               ; preds = %2
  %13 = getelementptr inbounds nuw %"class.dd::pdd_manager", ptr %5, i32 0, i32 0
  %14 = load i32, ptr %4, align 4, !tbaa !8
  %15 = call noundef nonnull align 4 dereferenceable(16) ptr @_ZN6vectorIN2dd11pdd_manager4nodeELb0EjEixEj(ptr noundef nonnull align 8 dereferenceable(8) %13, i32 noundef %14)
  %16 = load i32, ptr %15, align 4
  %17 = and i32 %16, 1023
  %18 = add i32 %17, 1
  %19 = load i32, ptr %15, align 4
  %20 = and i32 %18, 1023
  %21 = and i32 %19, -1024
  %22 = or i32 %21, %20
  store i32 %22, ptr %15, align 4
  br label %23

23:                                               ; preds = %12, %2
  ret void
}

; Function Attrs: mustprogress nounwind uwtable
define linkonce_odr hidden void @_ZN2dd3pddD2Ev(ptr noundef nonnull align 8 dereferenceable(16) %0) unnamed_addr #5 comdat align 2 personality ptr @__gxx_personality_v0 {
  %2 = alloca ptr, align 8
  store ptr %0, ptr %2, align 8, !tbaa !146
  %3 = load ptr, ptr %2, align 8
  %4 = getelementptr inbounds nuw %"class.dd::pdd", ptr %3, i32 0, i32 1
  %5 = load ptr, ptr %4, align 8, !tbaa !153
  %6 = getelementptr inbounds nuw %"class.dd::pdd", ptr %3, i32 0, i32 0
  %7 = load i32, ptr %6, align 8, !tbaa !148
  invoke void @_ZN2dd11pdd_manager7dec_refEj(ptr noundef nonnull align 8 dereferenceable(952) %5, i32 noundef %7)
          to label %8 unwind label %9

8:                                                ; preds = %1
  ret void

9:                                                ; preds = %1
  %10 = landingpad { ptr, i32 }
          catch ptr null
  %11 = extractvalue { ptr, i32 } %10, 0
  call void @__clang_call_terminate(ptr %11) #21
  unreachable
}

; Function Attrs: mustprogress uwtable
define linkonce_odr hidden void @_ZN2dd3pddC2EjPNS_11pdd_managerE(ptr noundef nonnull align 8 dereferenceable(16) %0, i32 noundef %1, ptr noundef %2) unnamed_addr #4 comdat align 2 {
  %4 = alloca ptr, align 8
  %5 = alloca i32, align 4
  %6 = alloca ptr, align 8
  store ptr %0, ptr %4, align 8, !tbaa !146
  store i32 %1, ptr %5, align 4, !tbaa !8
  store ptr %2, ptr %6, align 8, !tbaa !3
  %7 = load ptr, ptr %4, align 8
  %8 = getelementptr inbounds nuw %"class.dd::pdd", ptr %7, i32 0, i32 0
  %9 = load i32, ptr %5, align 4, !tbaa !8
  store i32 %9, ptr %8, align 8, !tbaa !148
  %10 = getelementptr inbounds nuw %"class.dd::pdd", ptr %7, i32 0, i32 1
  %11 = load ptr, ptr %6, align 8, !tbaa !3
  store ptr %11, ptr %10, align 8, !tbaa !153
  %12 = getelementptr inbounds nuw %"class.dd::pdd", ptr %7, i32 0, i32 1
  %13 = load ptr, ptr %12, align 8, !tbaa !153
  %14 = load i32, ptr %5, align 4, !tbaa !8
  call void @_ZN2dd11pdd_manager7inc_refEj(ptr noundef nonnull align 8 dereferenceable(952) %13, i32 noundef %14)
  ret void
}

; Function Attrs: mustprogress uwtable
define hidden void @_ZN2dd11pdd_manager6mk_valERK8rational(ptr dead_on_unwind noalias writable sret(%"class.dd::pdd") align 8 %0, ptr noundef nonnull align 8 dereferenceable(952) %1, ptr noundef nonnull align 8 dereferenceable(32) %2) #4 align 2 {
  %4 = alloca ptr, align 8
  %5 = alloca ptr, align 8
  %6 = alloca ptr, align 8
  store ptr %0, ptr %4, align 8
  store ptr %1, ptr %5, align 8, !tbaa !3
  store ptr %2, ptr %6, align 8, !tbaa !88
  %7 = load ptr, ptr %5, align 8
  %8 = load ptr, ptr %6, align 8, !tbaa !88
  %9 = call noundef i32 @_ZN2dd11pdd_manager7imk_valERK8rational(ptr noundef nonnull align 8 dereferenceable(952) %7, ptr noundef nonnull align 8 dereferenceable(32) %8)
  call void @_ZN2dd3pddC2EjPNS_11pdd_managerE(ptr noundef nonnull align 8 dereferenceable(16) %0, i32 noundef %9, ptr noundef %7)
  ret void
}

; Function Attrs: mustprogress uwtable
define hidden void @_ZN2dd11pdd_manager3addERK8rationalRKNS_3pddE(ptr dead_on_unwind noalias writable sret(%"class.dd::pdd") align 8 %0, ptr noundef nonnull align 8 dereferenceable(952) %1, ptr noundef nonnull align 8 dereferenceable(32) %2, ptr noundef nonnull align 8 dereferenceable(16) %3) #4 align 2 personality ptr @__gxx_personality_v0 {
  %5 = alloca ptr, align 8
  %6 = alloca ptr, align 8
  %7 = alloca ptr, align 8
  %8 = alloca ptr, align 8
  %9 = alloca %"class.dd::pdd", align 8
  %10 = alloca ptr, align 8
  %11 = alloca i32, align 4
  store ptr %0, ptr %5, align 8
  store ptr %1, ptr %6, align 8, !tbaa !3
  store ptr %2, ptr %7, align 8, !tbaa !88
  store ptr %3, ptr %8, align 8, !tbaa !146
  %12 = load ptr, ptr %6, align 8
  call void @llvm.lifetime.start.p0(i64 16, ptr %9) #3
  %13 = load ptr, ptr %7, align 8, !tbaa !88
  call void @_ZN2dd11pdd_manager6mk_valERK8rational(ptr dead_on_unwind writable sret(%"class.dd::pdd") align 8 %9, ptr noundef nonnull align 8 dereferenceable(952) %12, ptr noundef nonnull align 8 dereferenceable(32) %13)
  %14 = getelementptr inbounds nuw %"class.dd::pdd", ptr %9, i32 0, i32 0
  %15 = load i32, ptr %14, align 8, !tbaa !148
  %16 = load ptr, ptr %8, align 8, !tbaa !146
  %17 = getelementptr inbounds nuw %"class.dd::pdd", ptr %16, i32 0, i32 0
  %18 = load i32, ptr %17, align 8, !tbaa !148
  %19 = invoke noundef i32 @_ZN2dd11pdd_manager5applyEjjNS0_6pdd_opE(ptr noundef nonnull align 8 dereferenceable(952) %12, i32 noundef %15, i32 noundef %18, i32 noundef 2)
          to label %20 unwind label %22

20:                                               ; preds = %4
  invoke void @_ZN2dd3pddC2EjPNS_11pdd_managerE(ptr noundef nonnull align 8 dereferenceable(16) %0, i32 noundef %19, ptr noundef %12)
          to label %21 unwind label %22

21:                                               ; preds = %20
  call void @_ZN2dd3pddD2Ev(ptr noundef nonnull align 8 dereferenceable(16) %9) #3
  call void @llvm.lifetime.end.p0(i64 16, ptr %9) #3
  ret void

22:                                               ; preds = %20, %4
  %23 = landingpad { ptr, i32 }
          cleanup
  %24 = extractvalue { ptr, i32 } %23, 0
  store ptr %24, ptr %10, align 8
  %25 = extractvalue { ptr, i32 } %23, 1
  store i32 %25, ptr %11, align 4
  call void @_ZN2dd3pddD2Ev(ptr noundef nonnull align 8 dereferenceable(16) %9) #3
  call void @llvm.lifetime.end.p0(i64 16, ptr %9) #3
  br label %26

26:                                               ; preds = %22
  %27 = load ptr, ptr %10, align 8
  %28 = load i32, ptr %11, align 4
  %29 = insertvalue { ptr, i32 } poison, ptr %27, 0
  %30 = insertvalue { ptr, i32 } %29, i32 %28, 1
  resume { ptr, i32 } %30
}