; Function Attrs: mustprogress uwtable
define hidden void @_ZN2dd11pdd_manager3addERK8rationalRKNS_3pddE(ptr dead_on_unwind noalias writable writeonly sret(%"class.dd::pdd") align 8 captures(none) %0, ptr noundef nonnull align 8 dereferenceable(952) %1, ptr noundef nonnull align 8 dereferenceable(32) %2, ptr noundef nonnull readonly align 8 captures(none) dereferenceable(16) %3) local_unnamed_addr #3 align 2 personality ptr @__gxx_personality_v0 {
  %5 = tail call noundef i32 @_ZN2dd11pdd_manager7imk_valERK8rational(ptr noundef nonnull align 8 dereferenceable(952) %1, ptr noundef nonnull align 8 dereferenceable(32) %2), !noalias !136
  %6 = load ptr, ptr %1, align 8, !tbaa !91, !noalias !136
  %7 = zext i32 %5 to i64
  %8 = getelementptr inbounds nuw %"struct.dd::pdd_manager::node", ptr %6, i64 %7
  %9 = load i32, ptr %8, align 4, !noalias !136
  %10 = and i32 %9, 1023
  %.not.i.i.i = icmp eq i32 %10, 1023
  br i1 %.not.i.i.i, label %_ZN2dd11pdd_manager6mk_valERK8rational.exit, label %11

11:                                               ; preds = %4
  %12 = add i32 %9, 1
  %13 = and i32 %12, 1023
  %14 = and i32 %9, -1024
  %15 = or disjoint i32 %13, %14
  store i32 %15, ptr %8, align 4, !noalias !136
  br label %_ZN2dd11pdd_manager6mk_valERK8rational.exit

_ZN2dd11pdd_manager6mk_valERK8rational.exit:      ; preds = %4, %11
  %16 = load i32, ptr %3, align 8, !tbaa !119
  %17 = invoke noundef i32 @_ZN2dd11pdd_manager5applyEjjNS0_6pdd_opE(ptr noundef nonnull align 8 dereferenceable(952) %1, i32 noundef %5, i32 noundef %16, i32 noundef 2)
          to label %18 unwind label %39

18:                                               ; preds = %_ZN2dd11pdd_manager6mk_valERK8rational.exit
  store i32 %17, ptr %0, align 8, !tbaa !119
  %19 = getelementptr inbounds nuw i8, ptr %0, i64 8
  store ptr %1, ptr %19, align 8, !tbaa !122
  %20 = load ptr, ptr %1, align 8, !tbaa !91
  %21 = zext i32 %17 to i64
  %22 = getelementptr inbounds nuw %"struct.dd::pdd_manager::node", ptr %20, i64 %21
  %23 = load i32, ptr %22, align 4
  %24 = and i32 %23, 1023
  %.not.i.i = icmp eq i32 %24, 1023
  br i1 %.not.i.i, label %_ZN2dd3pddC2EjPNS_11pdd_managerE.exit, label %25

25:                                               ; preds = %18
  %26 = add i32 %23, 1
  %27 = and i32 %26, 1023
  %28 = and i32 %23, -1024
  %29 = or disjoint i32 %27, %28
  store i32 %29, ptr %22, align 4
  %.pre = load ptr, ptr %1, align 8, !tbaa !91
  br label %_ZN2dd3pddC2EjPNS_11pdd_managerE.exit

_ZN2dd3pddC2EjPNS_11pdd_managerE.exit:            ; preds = %25, %18
  %30 = phi ptr [ %.pre, %25 ], [ %20, %18 ]
  %31 = getelementptr inbounds nuw %"struct.dd::pdd_manager::node", ptr %30, i64 %7
  %32 = load i32, ptr %31, align 4
  %33 = and i32 %32, 1023
  %.not.i.i4 = icmp eq i32 %33, 1023
  br i1 %.not.i.i4, label %_ZN2dd3pddD2Ev.exit, label %34

34:                                               ; preds = %_ZN2dd3pddC2EjPNS_11pdd_managerE.exit
  %35 = add i32 %32, 1023
  %36 = and i32 %35, 1023
  %37 = and i32 %32, -1024
  %38 = or disjoint i32 %36, %37
  store i32 %38, ptr %31, align 4
  br label %_ZN2dd3pddD2Ev.exit

_ZN2dd3pddD2Ev.exit:                              ; preds = %_ZN2dd3pddC2EjPNS_11pdd_managerE.exit, %34
  ret void

39:                                               ; preds = %_ZN2dd11pdd_manager6mk_valERK8rational.exit
  %40 = landingpad { ptr, i32 }
          cleanup
  %41 = load ptr, ptr %1, align 8, !tbaa !91
  %42 = getelementptr inbounds nuw %"struct.dd::pdd_manager::node", ptr %41, i64 %7
  %43 = load i32, ptr %42, align 4
  %44 = and i32 %43, 1023
  %.not.i.i5 = icmp eq i32 %44, 1023
  br i1 %.not.i.i5, label %_ZN2dd3pddD2Ev.exit6, label %45

45:                                               ; preds = %39
  %46 = add i32 %43, 1023
  %47 = and i32 %46, 1023
  %48 = and i32 %43, -1024
  %49 = or disjoint i32 %47, %48
  store i32 %49, ptr %42, align 4
  br label %_ZN2dd3pddD2Ev.exit6

_ZN2dd3pddD2Ev.exit6:                             ; preds = %39, %45
  resume { ptr, i32 } %40
}